; Function Attrs: nounwind uwtable
define dso_local noundef ptr @make_and_qual(ptr noundef %0, ptr noundef %1) local_unnamed_addr #0 {
  %3 = icmp eq ptr %0, null
  br i1 %3, label %12, label %4

4:                                                ; preds = %2
  %5 = icmp eq ptr %1, null
  br i1 %5, label %12, label %6

6:                                                ; preds = %4
  %7 = tail call ptr @list_make2_impl(i32 noundef 1, ptr nonnull %0, ptr nonnull %1) #7
  %8 = tail call noundef ptr @palloc0(i64 noundef 24) #7
  store i32 21, ptr %8, align 4
  %9 = getelementptr inbounds nuw i8, ptr %8, i64 4
  store i32 0, ptr %9, align 4
  %10 = getelementptr inbounds nuw i8, ptr %8, i64 8
  store ptr %7, ptr %10, align 8
  %11 = getelementptr inbounds nuw i8, ptr %8, i64 16
  store i32 -1, ptr %11, align 8
  br label %12

12:                                               ; preds = %4, %2, %6
  %.0 = phi ptr [ %8, %6 ], [ %1, %2 ], [ %0, %4 ]
  ret ptr %.0
}